; ModuleID = '20/192.c'
source_filename = "20/192.c"
target datalayout = "e-m:e-p270:32:32-p271:32:32-p272:64:64-i64:64-f80:128-n8:16:32:64-S128"
target triple = "x86_64-pc-linux-gnu"

@.str = private unnamed_addr constant [5 x i8] c"%s%s\00", align 1
@.str.1 = private unnamed_addr constant [3 x i8] c"%c\00", align 1
@.str.2 = private unnamed_addr constant [3 x i8] c"%s\00", align 1
@.str.3 = private unnamed_addr constant [4 x i8] c"%c\0A\00", align 1

; Function Attrs: noinline nounwind uwtable
define dso_local void @main() #0 {
  %1 = alloca [11 x i8], align 1
  %2 = alloca [4 x i8], align 1
  %3 = alloca i8, align 1
  %4 = alloca i32, align 4
  %5 = alloca i32, align 4
  %6 = alloca i32, align 4
  br label %7

7:                                                ; preds = %80, %0
  %8 = getelementptr inbounds [11 x i8], [11 x i8]* %1, i64 0, i64 0
  %9 = getelementptr inbounds [4 x i8], [4 x i8]* %2, i64 0, i64 0
  %10 = call i32 (i8*, ...) @__isoc99_scanf(i8* getelementptr inbounds ([5 x i8], [5 x i8]* @.str, i64 0, i64 0), i8* %8, i8* %9)
  %11 = icmp ne i32 %10, -1
  br i1 %11, label %12, label %88

12:                                               ; preds = %7
  %13 = getelementptr inbounds [11 x i8], [11 x i8]* %1, i64 0, i64 0
  %14 = call i64 @strlen(i8* %13) #3
  %15 = trunc i64 %14 to i32
  store i32 %15, i32* %6, align 4
  %16 = getelementptr inbounds [11 x i8], [11 x i8]* %1, i64 0, i64 0
  %17 = load i8, i8* %16, align 1
  store i8 %17, i8* %3, align 1
  store i32 0, i32* %5, align 4
  store i32 0, i32* %4, align 4
  br label %18

18:                                               ; preds = %42, %12
  %19 = load i32, i32* %4, align 4
  %20 = load i32, i32* %6, align 4
  %21 = sub nsw i32 %20, 2
  %22 = icmp sle i32 %19, %21
  br i1 %22, label %23, label %45

23:                                               ; preds = %18
  %24 = load i32, i32* %4, align 4
  %25 = add nsw i32 %24, 1
  %26 = sext i32 %25 to i64
  %27 = getelementptr inbounds [11 x i8], [11 x i8]* %1, i64 0, i64 %26
  %28 = load i8, i8* %27, align 1
  %29 = sext i8 %28 to i32
  %30 = load i8, i8* %3, align 1
  %31 = sext i8 %30 to i32
  %32 = icmp sgt i32 %29, %31
  br i1 %32, label %33, label %41

33:                                               ; preds = %23
  %34 = load i32, i32* %4, align 4
  %35 = add nsw i32 %34, 1
  %36 = sext i32 %35 to i64
  %37 = getelementptr inbounds [11 x i8], [11 x i8]* %1, i64 0, i64 %36
  %38 = load i8, i8* %37, align 1
  store i8 %38, i8* %3, align 1
  %39 = load i32, i32* %4, align 4
  %40 = add nsw i32 %39, 1
  store i32 %40, i32* %5, align 4
  br label %41

41:                                               ; preds = %33, %23
  br label %42

42:                                               ; preds = %41
  %43 = load i32, i32* %4, align 4
  %44 = add nsw i32 %43, 1
  store i32 %44, i32* %4, align 4
  br label %18

45:                                               ; preds = %18
  store i32 0, i32* %4, align 4
  br label %46

46:                                               ; preds = %57, %45
  %47 = load i32, i32* %4, align 4
  %48 = load i32, i32* %5, align 4
  %49 = icmp sle i32 %47, %48
  br i1 %49, label %50, label %60

50:                                               ; preds = %46
  %51 = load i32, i32* %4, align 4
  %52 = sext i32 %51 to i64
  %53 = getelementptr inbounds [11 x i8], [11 x i8]* %1, i64 0, i64 %52
  %54 = load i8, i8* %53, align 1
  %55 = sext i8 %54 to i32
  %56 = call i32 (i8*, ...) @printf(i8* getelementptr inbounds ([3 x i8], [3 x i8]* @.str.1, i64 0, i64 0), i32 %55)
  br label %57

57:                                               ; preds = %50
  %58 = load i32, i32* %4, align 4
  %59 = add nsw i32 %58, 1
  store i32 %59, i32* %4, align 4
  br label %46

60:                                               ; preds = %46
  %61 = getelementptr inbounds [4 x i8], [4 x i8]* %2, i64 0, i64 0
  %62 = call i32 (i8*, ...) @printf(i8* getelementptr inbounds ([3 x i8], [3 x i8]* @.str.2, i64 0, i64 0), i8* %61)
  %63 = load i32, i32* %5, align 4
  %64 = add nsw i32 %63, 1
  store i32 %64, i32* %4, align 4
  br label %65

65:                                               ; preds = %77, %60
  %66 = load i32, i32* %4, align 4
  %67 = load i32, i32* %6, align 4
  %68 = sub nsw i32 %67, 2
  %69 = icmp sle i32 %66, %68
  br i1 %69, label %70, label %80

70:                                               ; preds = %65
  %71 = load i32, i32* %4, align 4
  %72 = sext i32 %71 to i64
  %73 = getelementptr inbounds [11 x i8], [11 x i8]* %1, i64 0, i64 %72
  %74 = load i8, i8* %73, align 1
  %75 = sext i8 %74 to i32
  %76 = call i32 (i8*, ...) @printf(i8* getelementptr inbounds ([3 x i8], [3 x i8]* @.str.1, i64 0, i64 0), i32 %75)
  br label %77

77:                                               ; preds = %70
  %78 = load i32, i32* %4, align 4
  %79 = add nsw i32 %78, 1
  store i32 %79, i32* %4, align 4
  br label %65

80:                                               ; preds = %65
  %81 = load i32, i32* %6, align 4
  %82 = sub nsw i32 %81, 1
  %83 = sext i32 %82 to i64
  %84 = getelementptr inbounds [11 x i8], [11 x i8]* %1, i64 0, i64 %83
  %85 = load i8, i8* %84, align 1
  %86 = sext i8 %85 to i32
  %87 = call i32 (i8*, ...) @printf(i8* getelementptr inbounds ([4 x i8], [4 x i8]* @.str.3, i64 0, i64 0), i32 %86)
  br label %7

88:                                               ; preds = %7
  ret void
}

declare dso_local i32 @__isoc99_scanf(i8*, ...) #1

; Function Attrs: nounwind readonly
declare dso_local i64 @strlen(i8*) #2

declare dso_local i32 @printf(i8*, ...) #1


!llvm.module.flags = !{!0}
!llvm.ident = !{!1}

!0 = !{i32 1, !"wchar_size", i32 4}
!1 = !{!"clang version 10.0.0-4ubuntu1 "}
